target datalayout = "e-m:e-p270:32:32-p271:32:32-p272:64:64-i64:64-i128:128-f80:128-n8:16:32:64-S128"
target triple = "x86_64-pc-linux-gnu"

%struct.slurm_cred_ops_t = type { ptr, ptr, ptr, ptr, ptr, ptr }
%struct.identity_t = type { i32, i32, ptr, ptr, ptr, ptr, i32, ptr, ptr, i8 }
%struct.sbcast_cred_arg_t = type { i32, i32, i32, ptr, i64, ptr }

@enable_send_gids = internal global i8 1, align 1
@ops = internal global %struct.slurm_cred_ops_t zeroinitializer, align 8
@.str.16 = private unnamed_addr constant [28 x i8] c"%s: fetch_identity() failed\00", align 1
@__func__.create_sbcast_cred = private unnamed_addr constant [19 x i8] c"create_sbcast_cred\00", align 1
@.str.36 = private unnamed_addr constant [39 x i8] c"%s: failed to create sbcast credential\00", align 1

; Function Attrs: nounwind uwtable
define dso_local ptr @create_sbcast_cred(ptr noundef %0, i32 noundef %1, i32 noundef %2, i16 noundef zeroext %3) #0 {
  %5 = alloca ptr, align 8
  %6 = alloca ptr, align 8
  %7 = alloca i32, align 4
  %8 = alloca i32, align 4
  %9 = alloca i16, align 2
  %10 = alloca ptr, align 8
  %11 = alloca i8, align 1
  %12 = alloca %struct.identity_t, align 8
  %13 = alloca i32, align 4
  store ptr %0, ptr %6, align 8
  store i32 %1, ptr %7, align 4
  store i32 %2, ptr %8, align 4
  store i16 %3, ptr %9, align 2
  call void @llvm.lifetime.start.p0(i64 8, ptr %10) #9
  call void @llvm.lifetime.start.p0(i64 1, ptr %11) #9
  store i8 0, ptr %11, align 1
  call void @llvm.lifetime.start.p0(i64 72, ptr %12) #9
  call void @llvm.memset.p0.i64(ptr align 8 %12, i8 0, i64 72, i1 false)
  %14 = getelementptr inbounds nuw %struct.identity_t, ptr %12, i32 0, i32 0
  %15 = load i32, ptr %7, align 4
  store i32 %15, ptr %14, align 8
  %16 = getelementptr inbounds nuw %struct.identity_t, ptr %12, i32 0, i32 1
  %17 = load i32, ptr %8, align 4
  store i32 %17, ptr %16, align 4
  %18 = getelementptr inbounds nuw %struct.identity_t, ptr %12, i32 0, i32 9
  store i8 1, ptr %18, align 8
  %19 = load ptr, ptr %6, align 8
  %20 = getelementptr inbounds nuw %struct.sbcast_cred_arg_t, ptr %19, i32 0, i32 3
  %21 = load ptr, ptr %20, align 8
  %22 = icmp ne ptr %21, null
  br i1 %22, label %36, label %23

23:                                               ; preds = %4
  %24 = load i8, ptr @enable_send_gids, align 1, !range !11, !noundef !12
  %25 = trunc i8 %24 to i1
  br i1 %25, label %26, label %36

26:                                               ; preds = %23
  store i8 1, ptr %11, align 1
  %27 = load i32, ptr %7, align 4
  %28 = load i32, ptr %8, align 4
  %29 = call ptr @fetch_identity(i32 noundef %27, i32 noundef %28, i1 noundef zeroext false)
  %30 = load ptr, ptr %6, align 8
  %31 = getelementptr inbounds nuw %struct.sbcast_cred_arg_t, ptr %30, i32 0, i32 3
  store ptr %29, ptr %31, align 8
  %32 = icmp ne ptr %29, null
  br i1 %32, label %35, label %33

33:                                               ; preds = %26
  %34 = call i32 (ptr, ...) @error(ptr noundef @.str.16, ptr noundef @__func__.create_sbcast_cred)
  store ptr null, ptr %5, align 8
  store i32 1, ptr %13, align 4
  br label %73

35:                                               ; preds = %26
  br label %45

36:                                               ; preds = %23, %4
  %37 = load ptr, ptr %6, align 8
  %38 = getelementptr inbounds nuw %struct.sbcast_cred_arg_t, ptr %37, i32 0, i32 3
  %39 = load ptr, ptr %38, align 8
  %40 = icmp ne ptr %39, null
  br i1 %40, label %44, label %41

41:                                               ; preds = %36
  %42 = load ptr, ptr %6, align 8
  %43 = getelementptr inbounds nuw %struct.sbcast_cred_arg_t, ptr %42, i32 0, i32 3
  store ptr %12, ptr %43, align 8
  br label %44

44:                                               ; preds = %41, %36
  br label %45

45:                                               ; preds = %44, %35
  %46 = load ptr, ptr getelementptr inbounds nuw (%struct.slurm_cred_ops_t, ptr @ops, i32 0, i32 4), align 8
  %47 = load ptr, ptr %6, align 8
  %48 = load i16, ptr %9, align 2
  %49 = call ptr %46(ptr noundef %47, i16 noundef zeroext %48)
  store ptr %49, ptr %10, align 8
  %50 = icmp ne ptr %49, null
  br i1 %50, label %53, label %51

51:                                               ; preds = %45
  %52 = call i32 (ptr, ...) @error(ptr noundef @.str.36, ptr noundef @__func__.create_sbcast_cred)
  br label %53

53:                                               ; preds = %51, %45
  %54 = load i8, ptr %11, align 1, !range !11, !noundef !12
  %55 = trunc i8 %54 to i1
  br i1 %55, label %56, label %71

56:                                               ; preds = %53
  br label %57

57:                                               ; preds = %56
  %58 = load ptr, ptr %6, align 8
  %59 = getelementptr inbounds nuw %struct.sbcast_cred_arg_t, ptr %58, i32 0, i32 3
  %60 = load ptr, ptr %59, align 8
  %61 = icmp ne ptr %60, null
  br i1 %61, label %62, label %66

62:                                               ; preds = %57
  %63 = load ptr, ptr %6, align 8
  %64 = getelementptr inbounds nuw %struct.sbcast_cred_arg_t, ptr %63, i32 0, i32 3
  %65 = load ptr, ptr %64, align 8
  call void @destroy_identity(ptr noundef %65)
  br label %66

66:                                               ; preds = %62, %57
  %67 = load ptr, ptr %6, align 8
  %68 = getelementptr inbounds nuw %struct.sbcast_cred_arg_t, ptr %67, i32 0, i32 3
  store ptr null, ptr %68, align 8
  br label %69

69:                                               ; preds = %66
  br label %70

70:                                               ; preds = %69
  br label %71

71:                                               ; preds = %70, %53
  %72 = load ptr, ptr %10, align 8
  store ptr %72, ptr %5, align 8
  store i32 1, ptr %13, align 4
  br label %73

73:                                               ; preds = %71, %33
  call void @llvm.lifetime.end.p0(i64 72, ptr %12) #9
  call void @llvm.lifetime.end.p0(i64 1, ptr %11) #9
  call void @llvm.lifetime.end.p0(i64 8, ptr %10) #9
  %74 = load ptr, ptr %5, align 8
  ret ptr %74
}