; Function Attrs: nounwind uwtable
define dso_local ptr @create_sbcast_cred(ptr noundef %0, i32 noundef %1, i32 noundef %2, i16 noundef zeroext %3) local_unnamed_addr #0 {
  %5 = alloca %struct.identity_t, align 8
  call void @llvm.lifetime.start.p0(i64 72, ptr nonnull %5) #11
  %6 = getelementptr inbounds nuw i8, ptr %5, i64 8
  call void @llvm.memset.p0.i64(ptr noundef nonnull align 8 dereferenceable(72) %6, i8 0, i64 64, i1 false)
  store i32 %1, ptr %5, align 8
  %7 = getelementptr inbounds nuw i8, ptr %5, i64 4
  store i32 %2, ptr %7, align 4
  %8 = getelementptr inbounds nuw i8, ptr %5, i64 64
  store i8 1, ptr %8, align 8
  %9 = getelementptr inbounds nuw i8, ptr %0, i64 16
  %10 = load ptr, ptr %9, align 8
  %.not = icmp eq ptr %10, null
  br i1 %.not, label %11, label %17

11:                                               ; preds = %4
  %.b = load i1, ptr @enable_send_gids, align 1
  br i1 %.b, label %16, label %12

12:                                               ; preds = %11
  %13 = tail call ptr @fetch_identity(i32 noundef %1, i32 noundef %2, i1 noundef zeroext false) #11
  store ptr %13, ptr %9, align 8
  %.not17 = icmp eq ptr %13, null
  br i1 %.not17, label %14, label %17

14:                                               ; preds = %12
  %15 = tail call i32 (ptr, ...) @error(ptr noundef nonnull @.str.16, ptr noundef nonnull @__func__.create_sbcast_cred) #11
  br label %27

16:                                               ; preds = %11
  store ptr %5, ptr %9, align 8
  br label %17

17:                                               ; preds = %4, %16, %12
  %.0 = phi i1 [ false, %16 ], [ true, %12 ], [ false, %4 ]
  %18 = load ptr, ptr getelementptr inbounds nuw (i8, ptr @ops, i64 32), align 8
  %19 = call ptr %18(ptr noundef nonnull %0, i16 noundef zeroext %3) #11
  %.not19 = icmp eq ptr %19, null
  br i1 %.not19, label %20, label %22

20:                                               ; preds = %17
  %21 = call i32 (ptr, ...) @error(ptr noundef nonnull @.str.36, ptr noundef nonnull @__func__.create_sbcast_cred) #11
  br label %22

22:                                               ; preds = %20, %17
  br i1 %.0, label %23, label %27

23:                                               ; preds = %22
  %24 = load ptr, ptr %9, align 8
  %.not20 = icmp eq ptr %24, null
  br i1 %.not20, label %26, label %25

25:                                               ; preds = %23
  call void @destroy_identity(ptr noundef nonnull %24) #11
  br label %26

26:                                               ; preds = %25, %23
  store ptr null, ptr %9, align 8
  br label %27

27:                                               ; preds = %22, %26, %14
  %.015 = phi ptr [ null, %14 ], [ %19, %26 ], [ %19, %22 ]
  call void @llvm.lifetime.end.p0(i64 72, ptr nonnull %5) #11
  ret ptr %.015
}